; Function Attrs: mustprogress nofree norecurse nosync nounwind willreturn memory(write, argmem: readwrite, inaccessiblemem: readwrite) uwtable
define void @_ZN5arrow2io21FixedSizeBufferWriter5CloseEv(ptr noalias nocapture writeonly sret(%"class.arrow::Status") align 8 %agg.result, ptr nocapture noundef nonnull readonly align 8 dereferenceable(24) %this) unnamed_addr #17 align 2 {
entry:
  %impl_ = getelementptr inbounds i8, ptr %this, i64 16
  %0 = load ptr, ptr %impl_, align 8
  tail call void @llvm.experimental.noalias.scope.decl(metadata !76)
  %is_open_.i = getelementptr inbounds i8, ptr %0, i64 80
  store i8 0, ptr %is_open_.i, align 8, !noalias !76
  store ptr null, ptr %agg.result, align 8, !alias.scope !79
  ret void
}